target datalayout = "e-m:e-p270:32:32-p271:32:32-p272:64:64-i64:64-i128:128-f80:128-n8:16:32:64-S128"
target triple = "x86_64-pc-linux-gnu"

%struct.ssl_connection_st = type { %struct.ssl_st, ptr, i32, ptr, ptr, ptr, i32, ptr, i32, i32, i32, i32, %struct.OSSL_TIME, %struct.OSSL_TIME, %struct.ossl_statem_st, i32, ptr, ptr, i64, i64, i64, %struct.ossl_quic_tls_callbacks_st, ptr, ptr, %struct.anon, ptr, ptr, ptr, i32, ptr, %struct.ssl_dane_st, ptr, ptr, ptr, ptr, i32, [64 x i8], [64 x i8], [64 x i8], [64 x i8], [64 x i8], [64 x i8], [64 x i8], [64 x i8], [64 x i8], [64 x i8], [64 x i8], [64 x i8], ptr, [64 x i8], i64, i32, i64, [32 x i8], ptr, ptr, ptr, i64, ptr, [32 x i8], i64, i32, ptr, ptr, i32, i32, ptr, ptr, ptr, ptr, ptr, i64, ptr, ptr, i64, i32, i32, i32, i64, i32, i32, i64, i64, i64, %struct.anon.1, ptr, i32, ptr, ptr, ptr, i32, ptr, ptr, ptr, i32, i32, i32, i32, ptr, i64, i32, ptr, %struct.srp_ctx_st, ptr, %struct.record_layer_st, ptr, ptr, ptr, ptr, i64, i32, i32, i32, i64, i64, i64, ptr, ptr, ptr, ptr, ptr, i64, ptr, i64, ptr, i64 }
%struct.ssl_st = type { i32, ptr, ptr, ptr, %struct.CRYPTO_REF_COUNT, ptr, %struct.crypto_ex_data_st }
%struct.CRYPTO_REF_COUNT = type { i32 }
%struct.crypto_ex_data_st = type { ptr, ptr }
%struct.OSSL_TIME = type { i64 }
%struct.ossl_statem_st = type { i32, i32, i32, i32, i32, i32, i32, i32, i32, i32, i32, i32, i32, ptr, ptr, ptr, i8 }
%struct.ossl_quic_tls_callbacks_st = type { ptr, ptr, ptr, ptr, ptr, ptr }
%struct.anon = type { i64, [32 x i8], [32 x i8], ptr, ptr, i32, i32, i32, i32, [2 x i8], i32, i32, i32, i32, %struct.anon.0, [64 x i8], i64, [64 x i8], i64, i32, i32, ptr, i64, ptr, i64, i32, i8, i8, i16, ptr, i16 }
%struct.anon.0 = type { [128 x i8], i64, [128 x i8], i64, i64, i32, ptr, ptr, [4 x ptr], [4 x i16], i64, i32, ptr, i64, ptr, i64, ptr, ptr, ptr, i32, i64, ptr, i32, ptr, i64, ptr, i64, ptr, i64, ptr, ptr, ptr, ptr, i64, i64, ptr, ptr, i32, i32, i32, i32 }
%struct.ssl_dane_st = type { ptr, ptr, ptr, ptr, ptr, i32, i32, i32, i64 }
%struct.anon.1 = type { [29 x i8], ptr, ptr, ptr, i32, ptr, i16, i32, %struct.anon.2, i32, i32, i64, ptr, i64, ptr, i64, ptr, i64, ptr, i64, ptr, i64, ptr, ptr, ptr, ptr, ptr, ptr, ptr, i64, ptr, i64, i32, i32, i32, i32, ptr, i64, i32, i8, i32, [4 x i32], i32, i8, i8, i8, i8 }
%struct.anon.2 = type { ptr, ptr, ptr, i64 }
%struct.srp_ctx_st = type { ptr, ptr, ptr, ptr, ptr, ptr, ptr, ptr, ptr, ptr, ptr, ptr, ptr, ptr, i32, i64 }
%struct.record_layer_st = type { ptr, ptr, ptr, ptr, ptr, ptr, ptr, ptr, i64, i32, i64, [4 x i8], i64, i64, i8, ptr, i32, ptr, ptr, ptr, i64, i64, i64, i64, [32 x %struct.tls_record_st] }
%struct.tls_record_st = type { ptr, i32, i8, ptr, ptr, i64, i64, i16, [8 x i8] }
%struct.ssl_ctx_st = type { ptr, ptr, ptr, ptr, ptr, ptr, ptr, i64, ptr, ptr, i32, %struct.OSSL_TIME, ptr, ptr, ptr, %struct.anon.3, %struct.CRYPTO_REF_COUNT, ptr, ptr, ptr, ptr, ptr, ptr, ptr, ptr, ptr, %struct.crypto_ex_data_st, ptr, ptr, ptr, ptr, ptr, ptr, ptr, i64, i32, i32, i32, i64, ptr, ptr, i32, ptr, ptr, i32, i64, [32 x i8], ptr, ptr, ptr, i32, ptr, ptr, ptr, i64, i64, i64, i64, ptr, ptr, ptr, ptr, ptr, %struct.anon.4, ptr, ptr, ptr, ptr, %struct.srp_ctx_st, %struct.dane_ctx_st, ptr, ptr, ptr, ptr, i32, i32, ptr, ptr, i64, i64, ptr, ptr, ptr, i64, ptr, ptr, i32, ptr, ptr, ptr, [14 x i32], [24 x ptr], [14 x ptr], [14 x i64], i64, ptr, ptr, ptr, i64, i64, ptr, i64, i64, i32, i32, i32, i32, ptr, i64, ptr, i64, i64, ptr, ptr }
%struct.anon.3 = type { i32, i32, i32, i32, i32, i32, i32, i32, i32, i32, i32 }
%struct.anon.4 = type { ptr, ptr, [16 x i8], ptr, ptr, ptr, ptr, ptr, i32, i8, i64, ptr, i64, ptr, i64, ptr, i64, ptr, ptr, i64, ptr, ptr, ptr, i64, ptr, ptr, ptr, ptr, [32 x i8] }
%struct.dane_ctx_st = type { ptr, ptr, i8, i64 }
%struct.ssl_session_st = type { i32, i64, [64 x i8], [512 x i8], i64, [32 x i8], i64, [32 x i8], ptr, ptr, i32, ptr, ptr, ptr, i64, %struct.OSSL_TIME, %struct.OSSL_TIME, %struct.OSSL_TIME, i32, ptr, i64, i32, %struct.crypto_ex_data_st, %struct.anon.5, ptr, ptr, i64, i32, ptr, ptr, ptr, %struct.CRYPTO_REF_COUNT }
%struct.anon.5 = type { ptr, ptr, i64, i64, i32, i32, ptr, i64, i8 }
%struct.danetls_record_st = type { i8, i8, i8, ptr, i64, ptr }

@.str = private unnamed_addr constant [25 x i8] c"../openssl/ssl/ssl_lib.c\00", align 1
@__func__.ssl_validate_ct = private unnamed_addr constant [16 x i8] c"ssl_validate_ct\00", align 1

; Function Attrs: inlinehint nounwind uwtable
define internal i32 @sk_danetls_record_num(ptr noundef %0) #4 {
  %2 = alloca ptr, align 8
  store ptr %0, ptr %2, align 8, !tbaa !312
  %3 = load ptr, ptr %2, align 8, !tbaa !312
  %4 = call i32 @OPENSSL_sk_num(ptr noundef %3)
  ret i32 %4
}

; Function Attrs: inlinehint nounwind uwtable
define internal ptr @ossl_check_const_X509_sk_type(ptr noundef %0) #4 {
  %2 = alloca ptr, align 8
  store ptr %0, ptr %2, align 8, !tbaa !422
  %3 = load ptr, ptr %2, align 8, !tbaa !422
  ret ptr %3
}

; Function Attrs: nounwind uwtable
define i32 @ssl_validate_ct(ptr noundef %0) #0 {
  %2 = alloca i32, align 4
  %3 = alloca ptr, align 8
  %4 = alloca i32, align 4
  %5 = alloca ptr, align 8
  %6 = alloca ptr, align 8
  %7 = alloca ptr, align 8
  %8 = alloca ptr, align 8
  %9 = alloca ptr, align 8
  %10 = alloca i32, align 4
  store ptr %0, ptr %3, align 8, !tbaa !3
  call void @llvm.lifetime.start.p0(i64 4, ptr %4) #9
  store i32 0, ptr %4, align 4, !tbaa !14
  call void @llvm.lifetime.start.p0(i64 8, ptr %5) #9
  %11 = load ptr, ptr %3, align 8, !tbaa !3
  %12 = getelementptr inbounds nuw %struct.ssl_connection_st, ptr %11, i32 0, i32 54
  %13 = load ptr, ptr %12, align 8, !tbaa !30
  %14 = icmp ne ptr %13, null
  br i1 %14, label %15, label %21

15:                                               ; preds = %1
  %16 = load ptr, ptr %3, align 8, !tbaa !3
  %17 = getelementptr inbounds nuw %struct.ssl_connection_st, ptr %16, i32 0, i32 54
  %18 = load ptr, ptr %17, align 8, !tbaa !30
  %19 = getelementptr inbounds nuw %struct.ssl_session_st, ptr %18, i32 0, i32 12
  %20 = load ptr, ptr %19, align 8, !tbaa !421
  br label %22

21:                                               ; preds = %1
  br label %22

22:                                               ; preds = %21, %15
  %23 = phi ptr [ %20, %15 ], [ null, %21 ]
  store ptr %23, ptr %5, align 8, !tbaa !308
  call void @llvm.lifetime.start.p0(i64 8, ptr %6) #9
  call void @llvm.lifetime.start.p0(i64 8, ptr %7) #9
  %24 = load ptr, ptr %3, align 8, !tbaa !3
  %25 = getelementptr inbounds nuw %struct.ssl_connection_st, ptr %24, i32 0, i32 30
  store ptr %25, ptr %7, align 8, !tbaa !294
  call void @llvm.lifetime.start.p0(i64 8, ptr %8) #9
  store ptr null, ptr %8, align 8, !tbaa !555
  call void @llvm.lifetime.start.p0(i64 8, ptr %9) #9
  %26 = load ptr, ptr %3, align 8, !tbaa !3
  %27 = getelementptr inbounds nuw %struct.ssl_connection_st, ptr %26, i32 0, i32 87
  %28 = load ptr, ptr %27, align 8, !tbaa !263
  %29 = icmp eq ptr %28, null
  br i1 %29, label %50, label %30

30:                                               ; preds = %22
  %31 = load ptr, ptr %5, align 8, !tbaa !308
  %32 = icmp eq ptr %31, null
  br i1 %32, label %50, label %33

33:                                               ; preds = %30
  %34 = load ptr, ptr %3, align 8, !tbaa !3
  %35 = getelementptr inbounds nuw %struct.ssl_connection_st, ptr %34, i32 0, i32 71
  %36 = load i64, ptr %35, align 8, !tbaa !227
  %37 = icmp ne i64 %36, 0
  br i1 %37, label %50, label %38

38:                                               ; preds = %33
  %39 = load ptr, ptr %3, align 8, !tbaa !3
  %40 = getelementptr inbounds nuw %struct.ssl_connection_st, ptr %39, i32 0, i32 70
  %41 = load ptr, ptr %40, align 8, !tbaa !226
  %42 = icmp eq ptr %41, null
  br i1 %42, label %50, label %43

43:                                               ; preds = %38
  %44 = load ptr, ptr %3, align 8, !tbaa !3
  %45 = getelementptr inbounds nuw %struct.ssl_connection_st, ptr %44, i32 0, i32 70
  %46 = load ptr, ptr %45, align 8, !tbaa !226
  %47 = call ptr @ossl_check_const_X509_sk_type(ptr noundef %46)
  %48 = call i32 @OPENSSL_sk_num(ptr noundef %47)
  %49 = icmp sle i32 %48, 1
  br i1 %49, label %50, label %51

50:                                               ; preds = %43, %38, %33, %30, %22
  store i32 1, ptr %2, align 4
  store i32 1, ptr %10, align 4
  br label %154

51:                                               ; preds = %43
  %52 = load ptr, ptr %7, align 8, !tbaa !294
  %53 = icmp ne ptr %52, null
  br i1 %53, label %54, label %74

54:                                               ; preds = %51
  %55 = load ptr, ptr %7, align 8, !tbaa !294
  %56 = getelementptr inbounds nuw %struct.ssl_dane_st, ptr %55, i32 0, i32 1
  %57 = load ptr, ptr %56, align 8, !tbaa !297
  %58 = call i32 @sk_danetls_record_num(ptr noundef %57)
  %59 = icmp sgt i32 %58, 0
  br i1 %59, label %60, label %74

60:                                               ; preds = %54
  %61 = load ptr, ptr %7, align 8, !tbaa !294
  %62 = getelementptr inbounds nuw %struct.ssl_dane_st, ptr %61, i32 0, i32 3
  %63 = load ptr, ptr %62, align 8, !tbaa !306
  %64 = icmp ne ptr %63, null
  br i1 %64, label %65, label %74

65:                                               ; preds = %60
  %66 = load ptr, ptr %7, align 8, !tbaa !294
  %67 = getelementptr inbounds nuw %struct.ssl_dane_st, ptr %66, i32 0, i32 3
  %68 = load ptr, ptr %67, align 8, !tbaa !306
  %69 = getelementptr inbounds nuw %struct.danetls_record_st, ptr %68, i32 0, i32 0
  %70 = load i8, ptr %69, align 8, !tbaa !315
  %71 = zext i8 %70 to i32
  switch i32 %71, label %73 [
    i32 2, label %72
    i32 3, label %72
  ]

72:                                               ; preds = %65, %65
  store i32 1, ptr %2, align 4
  store i32 1, ptr %10, align 4
  br label %154

73:                                               ; preds = %65
  br label %74

74:                                               ; preds = %73, %60, %54, %51
  %75 = load ptr, ptr %3, align 8, !tbaa !3
  %76 = getelementptr inbounds nuw %struct.ssl_connection_st, ptr %75, i32 0, i32 0
  %77 = getelementptr inbounds nuw %struct.ssl_st, ptr %76, i32 0, i32 1
  %78 = load ptr, ptr %77, align 8, !tbaa !473
  %79 = getelementptr inbounds nuw %struct.ssl_ctx_st, ptr %78, i32 0, i32 0
  %80 = load ptr, ptr %79, align 8, !tbaa !497
  %81 = load ptr, ptr %3, align 8, !tbaa !3
  %82 = getelementptr inbounds nuw %struct.ssl_connection_st, ptr %81, i32 0, i32 0
  %83 = getelementptr inbounds nuw %struct.ssl_st, ptr %82, i32 0, i32 1
  %84 = load ptr, ptr %83, align 8, !tbaa !473
  %85 = getelementptr inbounds nuw %struct.ssl_ctx_st, ptr %84, i32 0, i32 89
  %86 = load ptr, ptr %85, align 8, !tbaa !365
  %87 = call ptr @CT_POLICY_EVAL_CTX_new_ex(ptr noundef %80, ptr noundef %86)
  store ptr %87, ptr %8, align 8, !tbaa !555
  %88 = load ptr, ptr %8, align 8, !tbaa !555
  %89 = icmp eq ptr %88, null
  br i1 %89, label %90, label %92

90:                                               ; preds = %74
  call void @ERR_new()
  call void @ERR_set_debug(ptr noundef @.str, i32 noundef 6579, ptr noundef @__func__.ssl_validate_ct)
  %91 = load ptr, ptr %3, align 8, !tbaa !3
  call void (ptr, i32, i32, ptr, ...) @ossl_statem_fatal(ptr noundef %91, i32 noundef 80, i32 noundef 524338, ptr noundef null)
  br label %145

92:                                               ; preds = %74
  %93 = load ptr, ptr %3, align 8, !tbaa !3
  %94 = getelementptr inbounds nuw %struct.ssl_connection_st, ptr %93, i32 0, i32 70
  %95 = load ptr, ptr %94, align 8, !tbaa !226
  %96 = call ptr @ossl_check_const_X509_sk_type(ptr noundef %95)
  %97 = call ptr @OPENSSL_sk_value(ptr noundef %96, i32 noundef 1)
  store ptr %97, ptr %6, align 8, !tbaa !308
  %98 = load ptr, ptr %8, align 8, !tbaa !555
  %99 = load ptr, ptr %5, align 8, !tbaa !308
  %100 = call i32 @CT_POLICY_EVAL_CTX_set1_cert(ptr noundef %98, ptr noundef %99)
  %101 = load ptr, ptr %8, align 8, !tbaa !555
  %102 = load ptr, ptr %6, align 8, !tbaa !308
  %103 = call i32 @CT_POLICY_EVAL_CTX_set1_issuer(ptr noundef %101, ptr noundef %102)
  %104 = load ptr, ptr %8, align 8, !tbaa !555
  %105 = load ptr, ptr %3, align 8, !tbaa !3
  %106 = getelementptr inbounds nuw %struct.ssl_connection_st, ptr %105, i32 0, i32 0
  %107 = getelementptr inbounds nuw %struct.ssl_st, ptr %106, i32 0, i32 1
  %108 = load ptr, ptr %107, align 8, !tbaa !473
  %109 = getelementptr inbounds nuw %struct.ssl_ctx_st, ptr %108, i32 0, i32 51
  %110 = load ptr, ptr %109, align 8, !tbaa !327
  call void @CT_POLICY_EVAL_CTX_set_shared_CTLOG_STORE(ptr noundef %104, ptr noundef %110)
  %111 = load ptr, ptr %8, align 8, !tbaa !555
  %112 = load ptr, ptr %3, align 8, !tbaa !3
  %113 = getelementptr inbounds nuw %struct.ssl_connection_st, ptr %112, i32 0, i32 54
  %114 = load ptr, ptr %113, align 8, !tbaa !30
  %115 = call i64 @SSL_SESSION_get_time_ex(ptr noundef %114)
  %116 = mul i64 %115, 1000
  call void @CT_POLICY_EVAL_CTX_set_time(ptr noundef %111, i64 noundef %116)
  %117 = load ptr, ptr %3, align 8, !tbaa !3
  %118 = getelementptr inbounds nuw %struct.ssl_connection_st, ptr %117, i32 0, i32 0
  %119 = call ptr @SSL_get0_peer_scts(ptr noundef %118)
  store ptr %119, ptr %9, align 8, !tbaa !547
  %120 = load ptr, ptr %9, align 8, !tbaa !547
  %121 = load ptr, ptr %8, align 8, !tbaa !555
  %122 = call i32 @SCT_LIST_validate(ptr noundef %120, ptr noundef %121)
  %123 = icmp slt i32 %122, 0
  br i1 %123, label %124, label %126

124:                                              ; preds = %92
  call void @ERR_new()
  call void @ERR_set_debug(ptr noundef @.str, i32 noundef 6608, ptr noundef @__func__.ssl_validate_ct)
  %125 = load ptr, ptr %3, align 8, !tbaa !3
  call void (ptr, i32, i32, ptr, ...) @ossl_statem_fatal(ptr noundef %125, i32 noundef 40, i32 noundef 208, ptr noundef null)
  br label %145

126:                                              ; preds = %92
  %127 = load ptr, ptr %3, align 8, !tbaa !3
  %128 = getelementptr inbounds nuw %struct.ssl_connection_st, ptr %127, i32 0, i32 87
  %129 = load ptr, ptr %128, align 8, !tbaa !263
  %130 = load ptr, ptr %8, align 8, !tbaa !555
  %131 = load ptr, ptr %9, align 8, !tbaa !547
  %132 = load ptr, ptr %3, align 8, !tbaa !3
  %133 = getelementptr inbounds nuw %struct.ssl_connection_st, ptr %132, i32 0, i32 88
  %134 = load ptr, ptr %133, align 8, !tbaa !264
  %135 = call i32 %129(ptr noundef %130, ptr noundef %131, ptr noundef %134)
  store i32 %135, ptr %4, align 4, !tbaa !14
  %136 = load i32, ptr %4, align 4, !tbaa !14
  %137 = icmp slt i32 %136, 0
  br i1 %137, label %138, label %139

138:                                              ; preds = %126
  store i32 0, ptr %4, align 4, !tbaa !14
  br label %139

139:                                              ; preds = %138, %126
  %140 = load i32, ptr %4, align 4, !tbaa !14
  %141 = icmp ne i32 %140, 0
  br i1 %141, label %144, label %142

142:                                              ; preds = %139
  call void @ERR_new()
  call void @ERR_set_debug(ptr noundef @.str, i32 noundef 6616, ptr noundef @__func__.ssl_validate_ct)
  %143 = load ptr, ptr %3, align 8, !tbaa !3
  call void (ptr, i32, i32, ptr, ...) @ossl_statem_fatal(ptr noundef %143, i32 noundef 40, i32 noundef 234, ptr noundef null)
  br label %144

144:                                              ; preds = %142, %139
  br label %145

145:                                              ; preds = %144, %124, %90
  %146 = load ptr, ptr %8, align 8, !tbaa !555
  call void @CT_POLICY_EVAL_CTX_free(ptr noundef %146)
  %147 = load i32, ptr %4, align 4, !tbaa !14
  %148 = icmp sle i32 %147, 0
  br i1 %148, label %149, label %152

149:                                              ; preds = %145
  %150 = load ptr, ptr %3, align 8, !tbaa !3
  %151 = getelementptr inbounds nuw %struct.ssl_connection_st, ptr %150, i32 0, i32 71
  store i64 71, ptr %151, align 8, !tbaa !227
  br label %152

152:                                              ; preds = %149, %145
  %153 = load i32, ptr %4, align 4, !tbaa !14
  store i32 %153, ptr %2, align 4
  store i32 1, ptr %10, align 4
  br label %154

154:                                              ; preds = %152, %72, %50
  call void @llvm.lifetime.end.p0(i64 8, ptr %9) #9
  call void @llvm.lifetime.end.p0(i64 8, ptr %8) #9
  call void @llvm.lifetime.end.p0(i64 8, ptr %7) #9
  call void @llvm.lifetime.end.p0(i64 8, ptr %6) #9
  call void @llvm.lifetime.end.p0(i64 8, ptr %5) #9
  call void @llvm.lifetime.end.p0(i64 4, ptr %4) #9
  %155 = load i32, ptr %2, align 4
  ret i32 %155
}