; Function Attrs: nounwind uwtable
define range(i32 0, -2147483648) i32 @ssl_validate_ct(ptr noundef %0) local_unnamed_addr #0 {
  %2 = getelementptr inbounds nuw i8, ptr %0, i64 2304
  %3 = load ptr, ptr %2, align 8, !tbaa !20
  %.not = icmp eq ptr %3, null
  br i1 %.not, label %.thread, label %4

4:                                                ; preds = %1
  %5 = getelementptr inbounds nuw i8, ptr %3, i64 704
  %6 = load ptr, ptr %5, align 8, !tbaa !382
  %7 = getelementptr inbounds nuw i8, ptr %0, i64 2920
  %8 = load ptr, ptr %7, align 8, !tbaa !243
  %9 = icmp eq ptr %8, null
  %10 = icmp eq ptr %6, null
  %or.cond = select i1 %9, i1 true, i1 %10
  br i1 %or.cond, label %.thread, label %11

11:                                               ; preds = %4
  %12 = getelementptr inbounds nuw i8, ptr %0, i64 2456
  %13 = load i64, ptr %12, align 8, !tbaa !272
  %.not47 = icmp eq i64 %13, 0
  br i1 %.not47, label %14, label %.thread

14:                                               ; preds = %11
  %15 = getelementptr inbounds nuw i8, ptr %0, i64 2448
  %16 = load ptr, ptr %15, align 8, !tbaa !357
  %17 = icmp eq ptr %16, null
  br i1 %17, label %.thread, label %18

18:                                               ; preds = %14
  %19 = tail call i32 @OPENSSL_sk_num(ptr noundef nonnull %16) #20
  %20 = icmp slt i32 %19, 2
  br i1 %20, label %.thread, label %21

21:                                               ; preds = %18
  %22 = getelementptr inbounds nuw i8, ptr %0, i64 1312
  %23 = load ptr, ptr %22, align 8, !tbaa !267
  %24 = tail call i32 @OPENSSL_sk_num(ptr noundef %23) #20
  %25 = icmp sgt i32 %24, 0
  br i1 %25, label %26, label %32

26:                                               ; preds = %21
  %27 = getelementptr inbounds nuw i8, ptr %0, i64 1328
  %28 = load ptr, ptr %27, align 8, !tbaa !273
  %.not48 = icmp eq ptr %28, null
  br i1 %.not48, label %32, label %29

29:                                               ; preds = %26
  %30 = load i8, ptr %28, align 8, !tbaa !279
  %31 = and i8 %30, -2
  %switch = icmp eq i8 %31, 2
  br i1 %switch, label %.thread, label %32

32:                                               ; preds = %29, %26, %21
  %33 = getelementptr inbounds nuw i8, ptr %0, i64 8
  %34 = load ptr, ptr %33, align 8, !tbaa !426
  %35 = load ptr, ptr %34, align 8, !tbaa !446
  %36 = getelementptr inbounds nuw i8, ptr %34, i64 1152
  %37 = load ptr, ptr %36, align 8, !tbaa !329
  %38 = tail call ptr @CT_POLICY_EVAL_CTX_new_ex(ptr noundef %35, ptr noundef %37) #20
  %39 = icmp eq ptr %38, null
  br i1 %39, label %40, label %41

40:                                               ; preds = %32
  tail call void @ERR_new() #20
  tail call void @ERR_set_debug(ptr noundef nonnull @.str, i32 noundef 6579, ptr noundef nonnull @__func__.ssl_validate_ct) #20
  tail call void (ptr, i32, i32, ptr, ...) @ossl_statem_fatal(ptr noundef nonnull %0, i32 noundef 80, i32 noundef 524338, ptr noundef null) #20
  br label %.thread51

41:                                               ; preds = %32
  %42 = load ptr, ptr %15, align 8, !tbaa !357
  %43 = tail call ptr @OPENSSL_sk_value(ptr noundef %42, i32 noundef 1) #20
  %44 = tail call i32 @CT_POLICY_EVAL_CTX_set1_cert(ptr noundef nonnull %38, ptr noundef nonnull %6) #20
  %45 = tail call i32 @CT_POLICY_EVAL_CTX_set1_issuer(ptr noundef nonnull %38, ptr noundef %43) #20
  %46 = load ptr, ptr %33, align 8, !tbaa !426
  %47 = getelementptr inbounds nuw i8, ptr %46, i64 464
  %48 = load ptr, ptr %47, align 8, !tbaa !291
  tail call void @CT_POLICY_EVAL_CTX_set_shared_CTLOG_STORE(ptr noundef nonnull %38, ptr noundef %48) #20
  %49 = load ptr, ptr %2, align 8, !tbaa !20
  %50 = tail call i64 @SSL_SESSION_get_time_ex(ptr noundef %49) #20
  %51 = mul i64 %50, 1000
  tail call void @CT_POLICY_EVAL_CTX_set_time(ptr noundef nonnull %38, i64 noundef %51) #20
  %52 = tail call ptr @SSL_get0_peer_scts(ptr noundef nonnull %0)
  %53 = tail call i32 @SCT_LIST_validate(ptr noundef %52, ptr noundef nonnull %38) #20
  %54 = icmp slt i32 %53, 0
  br i1 %54, label %55, label %56

55:                                               ; preds = %41
  tail call void @ERR_new() #20
  tail call void @ERR_set_debug(ptr noundef nonnull @.str, i32 noundef 6608, ptr noundef nonnull @__func__.ssl_validate_ct) #20
  tail call void (ptr, i32, i32, ptr, ...) @ossl_statem_fatal(ptr noundef nonnull %0, i32 noundef 40, i32 noundef 208, ptr noundef null) #20
  br label %.thread51

56:                                               ; preds = %41
  %57 = load ptr, ptr %7, align 8, !tbaa !243
  %58 = getelementptr inbounds nuw i8, ptr %0, i64 2928
  %59 = load ptr, ptr %58, align 8, !tbaa !244
  %60 = tail call i32 %57(ptr noundef nonnull %38, ptr noundef %52, ptr noundef %59) #20
  %.not49 = icmp slt i32 %60, 1
  br i1 %.not49, label %61, label %62

61:                                               ; preds = %56
  tail call void @ERR_new() #20
  tail call void @ERR_set_debug(ptr noundef nonnull @.str, i32 noundef 6616, ptr noundef nonnull @__func__.ssl_validate_ct) #20
  tail call void (ptr, i32, i32, ptr, ...) @ossl_statem_fatal(ptr noundef nonnull %0, i32 noundef 40, i32 noundef 234, ptr noundef null) #20
  br label %.thread51

.thread51:                                        ; preds = %40, %55, %61
  tail call void @CT_POLICY_EVAL_CTX_free(ptr noundef %38) #20
  store i64 71, ptr %12, align 8, !tbaa !272
  br label %.thread

62:                                               ; preds = %56
  tail call void @CT_POLICY_EVAL_CTX_free(ptr noundef nonnull %38) #20
  br label %.thread

.thread:                                          ; preds = %62, %1, %.thread51, %29, %4, %11, %14, %18
  %.0 = phi i32 [ 1, %18 ], [ 1, %14 ], [ 1, %11 ], [ 1, %4 ], [ 1, %29 ], [ 0, %.thread51 ], [ %60, %62 ], [ 1, %1 ]
  ret i32 %.0
}